target datalayout = "e-m:e-p270:32:32-p271:32:32-p272:64:64-i64:64-i128:128-f80:128-n8:16:32:64-S128"
target triple = "x86_64-pc-linux-gnu"

%struct.GCRef = type { i64 }
%struct.CTState = type { ptr, i32, i32, ptr, ptr, ptr, %struct.CCallback, [128 x i16] }
%struct.CCallback = type { [8 x %union.FPRCBArg], [8 x i64], ptr, ptr, ptr, i32, i32, i32 }
%union.FPRCBArg = type { double }
%struct.CPState = type { i32, i32, %struct.CPValue, ptr, ptr, ptr, %struct.SBuf, ptr, ptr, ptr, ptr, i32, i32, i32, i32, [7 x i8], i8 }
%struct.CPValue = type { %union.anon, i32 }
%union.anon = type { i32 }
%struct.SBuf = type { ptr, ptr, ptr, %struct.MRef }
%struct.MRef = type { i64 }
%struct.CPDecl = type { i32, i32, i32, i32, ptr, ptr, ptr, i32, i32, i32, i32, i32, i32, [100 x %struct.CType] }
%struct.CType = type { i32, i32, i16, i16, %struct.GCRef }

; Function Attrs: nounwind uwtable
define internal i32 @cp_add(ptr noundef %0, i32 noundef %1, i32 noundef %2) #0 {
  %4 = alloca ptr, align 8
  %5 = alloca i32, align 4
  %6 = alloca i32, align 4
  %7 = alloca i32, align 4
  store ptr %0, ptr %4, align 8, !tbaa !96
  store i32 %1, ptr %5, align 4, !tbaa !11
  store i32 %2, ptr %6, align 4, !tbaa !11
  call void @llvm.lifetime.start.p0(i64 4, ptr %7) #13
  %8 = load ptr, ptr %4, align 8, !tbaa !96
  %9 = getelementptr inbounds nuw %struct.CPDecl, ptr %8, i32 0, i32 0
  %10 = load i32, ptr %9, align 8, !tbaa !102
  store i32 %10, ptr %7, align 4, !tbaa !11
  %11 = load i32, ptr %7, align 4, !tbaa !11
  %12 = icmp uge i32 %11, 100
  br i1 %12, label %13, label %17

13:                                               ; preds = %3
  %14 = load ptr, ptr %4, align 8, !tbaa !96
  %15 = getelementptr inbounds nuw %struct.CPDecl, ptr %14, i32 0, i32 4
  %16 = load ptr, ptr %15, align 8, !tbaa !98
  call void @cp_err(ptr noundef %16, i32 noundef 2216) #15
  unreachable

17:                                               ; preds = %3
  %18 = load i32, ptr %5, align 4, !tbaa !11
  %19 = load ptr, ptr %4, align 8, !tbaa !96
  %20 = getelementptr inbounds nuw %struct.CPDecl, ptr %19, i32 0, i32 13
  %21 = load i32, ptr %7, align 4, !tbaa !11
  %22 = zext i32 %21 to i64
  %23 = getelementptr inbounds nuw [100 x %struct.CType], ptr %20, i64 0, i64 %22
  %24 = getelementptr inbounds nuw %struct.CType, ptr %23, i32 0, i32 0
  store i32 %18, ptr %24, align 8, !tbaa !60
  %25 = load i32, ptr %6, align 4, !tbaa !11
  %26 = load ptr, ptr %4, align 8, !tbaa !96
  %27 = getelementptr inbounds nuw %struct.CPDecl, ptr %26, i32 0, i32 13
  %28 = load i32, ptr %7, align 4, !tbaa !11
  %29 = zext i32 %28 to i64
  %30 = getelementptr inbounds nuw [100 x %struct.CType], ptr %27, i64 0, i64 %29
  %31 = getelementptr inbounds nuw %struct.CType, ptr %30, i32 0, i32 1
  store i32 %25, ptr %31, align 4, !tbaa !105
  %32 = load ptr, ptr %4, align 8, !tbaa !96
  %33 = getelementptr inbounds nuw %struct.CPDecl, ptr %32, i32 0, i32 13
  %34 = load i32, ptr %7, align 4, !tbaa !11
  %35 = zext i32 %34 to i64
  %36 = getelementptr inbounds nuw [100 x %struct.CType], ptr %33, i64 0, i64 %35
  %37 = getelementptr inbounds nuw %struct.CType, ptr %36, i32 0, i32 2
  store i16 0, ptr %37, align 8, !tbaa !67
  %38 = load ptr, ptr %4, align 8, !tbaa !96
  %39 = getelementptr inbounds nuw %struct.CPDecl, ptr %38, i32 0, i32 13
  %40 = load i32, ptr %7, align 4, !tbaa !11
  %41 = zext i32 %40 to i64
  %42 = getelementptr inbounds nuw [100 x %struct.CType], ptr %39, i64 0, i64 %41
  %43 = getelementptr inbounds nuw %struct.CType, ptr %42, i32 0, i32 4
  %44 = getelementptr inbounds nuw %struct.GCRef, ptr %43, i32 0, i32 0
  store i64 0, ptr %44, align 8, !tbaa !120
  %45 = load ptr, ptr %4, align 8, !tbaa !96
  %46 = getelementptr inbounds nuw %struct.CPDecl, ptr %45, i32 0, i32 13
  %47 = load ptr, ptr %4, align 8, !tbaa !96
  %48 = getelementptr inbounds nuw %struct.CPDecl, ptr %47, i32 0, i32 1
  %49 = load i32, ptr %48, align 4, !tbaa !103
  %50 = zext i32 %49 to i64
  %51 = getelementptr inbounds nuw [100 x %struct.CType], ptr %46, i64 0, i64 %50
  %52 = getelementptr inbounds nuw %struct.CType, ptr %51, i32 0, i32 3
  %53 = load i16, ptr %52, align 2, !tbaa !104
  %54 = load ptr, ptr %4, align 8, !tbaa !96
  %55 = getelementptr inbounds nuw %struct.CPDecl, ptr %54, i32 0, i32 13
  %56 = load i32, ptr %7, align 4, !tbaa !11
  %57 = zext i32 %56 to i64
  %58 = getelementptr inbounds nuw [100 x %struct.CType], ptr %55, i64 0, i64 %57
  %59 = getelementptr inbounds nuw %struct.CType, ptr %58, i32 0, i32 3
  store i16 %53, ptr %59, align 2, !tbaa !104
  %60 = load i32, ptr %7, align 4, !tbaa !11
  %61 = trunc i32 %60 to i16
  %62 = load ptr, ptr %4, align 8, !tbaa !96
  %63 = getelementptr inbounds nuw %struct.CPDecl, ptr %62, i32 0, i32 13
  %64 = load ptr, ptr %4, align 8, !tbaa !96
  %65 = getelementptr inbounds nuw %struct.CPDecl, ptr %64, i32 0, i32 1
  %66 = load i32, ptr %65, align 4, !tbaa !103
  %67 = zext i32 %66 to i64
  %68 = getelementptr inbounds nuw [100 x %struct.CType], ptr %63, i64 0, i64 %67
  %69 = getelementptr inbounds nuw %struct.CType, ptr %68, i32 0, i32 3
  store i16 %61, ptr %69, align 2, !tbaa !104
  %70 = load i32, ptr %7, align 4, !tbaa !11
  %71 = add i32 %70, 1
  %72 = load ptr, ptr %4, align 8, !tbaa !96
  %73 = getelementptr inbounds nuw %struct.CPDecl, ptr %72, i32 0, i32 0
  store i32 %71, ptr %73, align 8, !tbaa !102
  %74 = load i32, ptr %7, align 4, !tbaa !11
  call void @llvm.lifetime.end.p0(i64 4, ptr %7) #13
  ret i32 %74
}

; Function Attrs: alwaysinline nounwind uwtable
define internal i32 @ctype_check(ptr noundef %0, i32 noundef %1) #6 {
  %3 = alloca ptr, align 8
  %4 = alloca i32, align 4
  store ptr %0, ptr %3, align 8, !tbaa !109
  store i32 %1, ptr %4, align 4, !tbaa !11
  %5 = load i32, ptr %4, align 4, !tbaa !11
  ret i32 %5
}

; Function Attrs: nounwind uwtable
define internal i32 @cp_push(ptr noundef %0, i32 noundef %1, i32 noundef %2) #0 {
  %4 = alloca ptr, align 8
  %5 = alloca i32, align 4
  %6 = alloca i32, align 4
  store ptr %0, ptr %4, align 8, !tbaa !96
  store i32 %1, ptr %5, align 4, !tbaa !11
  store i32 %2, ptr %6, align 4, !tbaa !11
  %7 = load ptr, ptr %4, align 8, !tbaa !96
  %8 = load i32, ptr %5, align 4, !tbaa !11
  %9 = load i32, ptr %6, align 4, !tbaa !11
  %10 = call i32 @cp_add(ptr noundef %7, i32 noundef %8, i32 noundef %9)
  %11 = load ptr, ptr %4, align 8, !tbaa !96
  %12 = getelementptr inbounds nuw %struct.CPDecl, ptr %11, i32 0, i32 1
  store i32 %10, ptr %12, align 4, !tbaa !103
  ret i32 %10
}

; Function Attrs: alwaysinline nounwind uwtable
define internal ptr @ctype_get(ptr noundef %0, i32 noundef %1) #6 {
  %3 = alloca ptr, align 8
  %4 = alloca i32, align 4
  store ptr %0, ptr %3, align 8, !tbaa !109
  store i32 %1, ptr %4, align 4, !tbaa !11
  %5 = load ptr, ptr %3, align 8, !tbaa !109
  %6 = getelementptr inbounds nuw %struct.CTState, ptr %5, i32 0, i32 0
  %7 = load ptr, ptr %6, align 8, !tbaa !88
  %8 = load ptr, ptr %3, align 8, !tbaa !109
  %9 = load i32, ptr %4, align 4, !tbaa !11
  %10 = call i32 @ctype_check(ptr noundef %8, i32 noundef %9)
  %11 = zext i32 %10 to i64
  %12 = getelementptr inbounds nuw %struct.CType, ptr %7, i64 %11
  ret ptr %12
}

; Function Attrs: nounwind uwtable
define internal void @cp_push_type(ptr noundef %0, i32 noundef %1) #0 {
  %3 = alloca ptr, align 8
  %4 = alloca i32, align 4
  %5 = alloca ptr, align 8
  %6 = alloca i32, align 4
  %7 = alloca i32, align 4
  store ptr %0, ptr %3, align 8, !tbaa !96
  store i32 %1, ptr %4, align 4, !tbaa !11
  call void @llvm.lifetime.start.p0(i64 8, ptr %5) #13
  %8 = load ptr, ptr %3, align 8, !tbaa !96
  %9 = getelementptr inbounds nuw %struct.CPDecl, ptr %8, i32 0, i32 4
  %10 = load ptr, ptr %9, align 8, !tbaa !98
  %11 = getelementptr inbounds nuw %struct.CPState, ptr %10, i32 0, i32 8
  %12 = load ptr, ptr %11, align 8, !tbaa !22
  %13 = load i32, ptr %4, align 4, !tbaa !11
  %14 = call ptr @ctype_get(ptr noundef %12, i32 noundef %13)
  store ptr %14, ptr %5, align 8, !tbaa !32
  call void @llvm.lifetime.start.p0(i64 4, ptr %6) #13
  %15 = load ptr, ptr %5, align 8, !tbaa !32
  %16 = getelementptr inbounds nuw %struct.CType, ptr %15, i32 0, i32 0
  %17 = load i32, ptr %16, align 8, !tbaa !60
  store i32 %17, ptr %6, align 4, !tbaa !11
  call void @llvm.lifetime.start.p0(i64 4, ptr %7) #13
  %18 = load ptr, ptr %5, align 8, !tbaa !32
  %19 = getelementptr inbounds nuw %struct.CType, ptr %18, i32 0, i32 1
  %20 = load i32, ptr %19, align 4, !tbaa !105
  store i32 %20, ptr %7, align 4, !tbaa !11
  %21 = load i32, ptr %6, align 4, !tbaa !11
  %22 = lshr i32 %21, 28
  switch i32 %22, label %112 [
    i32 1, label %23
    i32 5, label %23
    i32 8, label %45
    i32 3, label %65
    i32 6, label %99
  ]

23:                                               ; preds = %2, %2
  %24 = load ptr, ptr %3, align 8, !tbaa !96
  %25 = load i32, ptr %4, align 4, !tbaa !11
  %26 = add i32 1879048192, %25
  %27 = call i32 @cp_push(ptr noundef %24, i32 noundef %26, i32 noundef 0)
  %28 = load ptr, ptr %3, align 8, !tbaa !96
  %29 = getelementptr inbounds nuw %struct.CPDecl, ptr %28, i32 0, i32 8
  %30 = load i32, ptr %29, align 4, !tbaa !100
  %31 = and i32 %30, 50331648
  %32 = icmp ne i32 %31, 0
  br i1 %32, label %33, label %44

33:                                               ; preds = %23
  %34 = load ptr, ptr %3, align 8, !tbaa !96
  %35 = load ptr, ptr %3, align 8, !tbaa !96
  %36 = getelementptr inbounds nuw %struct.CPDecl, ptr %35, i32 0, i32 8
  %37 = load i32, ptr %36, align 4, !tbaa !100
  %38 = and i32 %37, 50331648
  %39 = call i32 @cp_push(ptr noundef %34, i32 noundef -2147418112, i32 noundef %38)
  %40 = load ptr, ptr %3, align 8, !tbaa !96
  %41 = getelementptr inbounds nuw %struct.CPDecl, ptr %40, i32 0, i32 8
  %42 = load i32, ptr %41, align 4, !tbaa !100
  %43 = and i32 %42, -50331649
  store i32 %43, ptr %41, align 4, !tbaa !100
  br label %44

44:                                               ; preds = %33, %23
  br label %126

45:                                               ; preds = %2
  %46 = load i32, ptr %6, align 4, !tbaa !11
  %47 = and i32 %46, -251723776
  %48 = icmp eq i32 %47, -2147418112
  br i1 %48, label %49, label %56

49:                                               ; preds = %45
  %50 = load i32, ptr %7, align 4, !tbaa !11
  %51 = xor i32 %50, -1
  %52 = load ptr, ptr %3, align 8, !tbaa !96
  %53 = getelementptr inbounds nuw %struct.CPDecl, ptr %52, i32 0, i32 8
  %54 = load i32, ptr %53, align 4, !tbaa !100
  %55 = and i32 %54, %51
  store i32 %55, ptr %53, align 4, !tbaa !100
  br label %56

56:                                               ; preds = %49, %45
  %57 = load ptr, ptr %3, align 8, !tbaa !96
  %58 = load i32, ptr %6, align 4, !tbaa !11
  %59 = and i32 %58, 65535
  call void @cp_push_type(ptr noundef %57, i32 noundef %59)
  %60 = load ptr, ptr %3, align 8, !tbaa !96
  %61 = load i32, ptr %6, align 4, !tbaa !11
  %62 = and i32 %61, -65536
  %63 = load i32, ptr %7, align 4, !tbaa !11
  %64 = call i32 @cp_push(ptr noundef %60, i32 noundef %62, i32 noundef %63)
  br label %126

65:                                               ; preds = %2
  %66 = load ptr, ptr %5, align 8, !tbaa !32
  %67 = getelementptr inbounds nuw %struct.CType, ptr %66, i32 0, i32 0
  %68 = load i32, ptr %67, align 8, !tbaa !60
  %69 = and i32 %68, 201326592
  %70 = icmp ne i32 %69, 0
  br i1 %70, label %71, label %82

71:                                               ; preds = %65
  %72 = load ptr, ptr %3, align 8, !tbaa !96
  %73 = getelementptr inbounds nuw %struct.CPDecl, ptr %72, i32 0, i32 8
  %74 = load i32, ptr %73, align 4, !tbaa !100
  %75 = and i32 %74, 50331648
  %76 = load i32, ptr %6, align 4, !tbaa !11
  %77 = or i32 %76, %75
  store i32 %77, ptr %6, align 4, !tbaa !11
  %78 = load ptr, ptr %3, align 8, !tbaa !96
  %79 = getelementptr inbounds nuw %struct.CPDecl, ptr %78, i32 0, i32 8
  %80 = load i32, ptr %79, align 4, !tbaa !100
  %81 = and i32 %80, -50331649
  store i32 %81, ptr %79, align 4, !tbaa !100
  br label %82

82:                                               ; preds = %71, %65
  %83 = load ptr, ptr %3, align 8, !tbaa !96
  %84 = load i32, ptr %6, align 4, !tbaa !11
  %85 = and i32 %84, 65535
  call void @cp_push_type(ptr noundef %83, i32 noundef %85)
  %86 = load ptr, ptr %3, align 8, !tbaa !96
  %87 = load i32, ptr %6, align 4, !tbaa !11
  %88 = and i32 %87, -65536
  %89 = load i32, ptr %7, align 4, !tbaa !11
  %90 = call i32 @cp_push(ptr noundef %86, i32 noundef %88, i32 noundef %89)
  %91 = load ptr, ptr %3, align 8, !tbaa !96
  %92 = getelementptr inbounds nuw %struct.CPDecl, ptr %91, i32 0, i32 13
  %93 = load ptr, ptr %3, align 8, !tbaa !96
  %94 = getelementptr inbounds nuw %struct.CPDecl, ptr %93, i32 0, i32 1
  %95 = load i32, ptr %94, align 4, !tbaa !103
  %96 = zext i32 %95 to i64
  %97 = getelementptr inbounds nuw [100 x %struct.CType], ptr %92, i64 0, i64 %96
  %98 = getelementptr inbounds nuw %struct.CType, ptr %97, i32 0, i32 2
  store i16 1, ptr %98, align 8, !tbaa !67
  br label %126

99:                                               ; preds = %2
  %100 = load ptr, ptr %5, align 8, !tbaa !32
  %101 = getelementptr inbounds nuw %struct.CType, ptr %100, i32 0, i32 2
  %102 = load i16, ptr %101, align 8, !tbaa !67
  %103 = load ptr, ptr %3, align 8, !tbaa !96
  %104 = getelementptr inbounds nuw %struct.CPDecl, ptr %103, i32 0, i32 13
  %105 = load ptr, ptr %3, align 8, !tbaa !96
  %106 = load i32, ptr %6, align 4, !tbaa !11
  %107 = load i32, ptr %7, align 4, !tbaa !11
  %108 = call i32 @cp_push(ptr noundef %105, i32 noundef %106, i32 noundef %107)
  %109 = zext i32 %108 to i64
  %110 = getelementptr inbounds nuw [100 x %struct.CType], ptr %104, i64 0, i64 %109
  %111 = getelementptr inbounds nuw %struct.CType, ptr %110, i32 0, i32 2
  store i16 %102, ptr %111, align 8, !tbaa !67
  br label %126

112:                                              ; preds = %2
  %113 = load ptr, ptr %3, align 8, !tbaa !96
  %114 = load i32, ptr %6, align 4, !tbaa !11
  %115 = load ptr, ptr %3, align 8, !tbaa !96
  %116 = getelementptr inbounds nuw %struct.CPDecl, ptr %115, i32 0, i32 8
  %117 = load i32, ptr %116, align 4, !tbaa !100
  %118 = and i32 %117, 50331648
  %119 = or i32 %114, %118
  %120 = load i32, ptr %7, align 4, !tbaa !11
  %121 = call i32 @cp_push(ptr noundef %113, i32 noundef %119, i32 noundef %120)
  %122 = load ptr, ptr %3, align 8, !tbaa !96
  %123 = getelementptr inbounds nuw %struct.CPDecl, ptr %122, i32 0, i32 8
  %124 = load i32, ptr %123, align 4, !tbaa !100
  %125 = and i32 %124, -50331649
  store i32 %125, ptr %123, align 4, !tbaa !100
  br label %126

126:                                              ; preds = %112, %99, %82, %56, %44
  call void @llvm.lifetime.end.p0(i64 4, ptr %7) #13
  call void @llvm.lifetime.end.p0(i64 4, ptr %6) #13
  call void @llvm.lifetime.end.p0(i64 8, ptr %5) #13
  ret void
}