; Function Attrs: nounwind uwtable
define internal fastcc void @cp_push_type(ptr noundef nonnull %0, i32 noundef %1) unnamed_addr #2 {
  %3 = getelementptr inbounds nuw i8, ptr %0, i64 16
  %4 = load ptr, ptr %3, align 8, !tbaa !112
  %5 = getelementptr inbounds nuw i8, ptr %4, i64 80
  %6 = load ptr, ptr %5, align 8, !tbaa !14
  %7 = load ptr, ptr %6, align 8, !tbaa !74
  %8 = zext i32 %1 to i64
  %9 = getelementptr inbounds nuw %struct.CType, ptr %7, i64 %8
  %10 = load i32, ptr %9, align 8, !tbaa !71
  %11 = getelementptr inbounds nuw i8, ptr %9, i64 4
  %12 = load i32, ptr %11, align 4, !tbaa !81
  %13 = lshr i32 %10, 28
  switch i32 %13, label %136 [
    i32 1, label %14
    i32 5, label %14
    i32 8, label %52
    i32 3, label %82
    i32 6, label %113
  ]

14:                                               ; preds = %2, %2
  %15 = load i32, ptr %0, align 8, !tbaa !88
  %16 = icmp ugt i32 %15, 99
  br i1 %16, label %17, label %cp_push.exit

17:                                               ; preds = %14
  tail call fastcc void @cp_err(ptr noundef nonnull %4, i32 noundef 2216) #16
  unreachable

cp_push.exit:                                     ; preds = %14
  %18 = add i32 %1, 1879048192
  %19 = getelementptr inbounds nuw i8, ptr %0, i64 64
  %20 = zext nneg i32 %15 to i64
  %21 = getelementptr inbounds nuw [100 x %struct.CType], ptr %19, i64 0, i64 %20
  store i32 %18, ptr %21, align 8, !tbaa !71
  %22 = getelementptr inbounds nuw i8, ptr %21, i64 4
  store i32 0, ptr %22, align 4, !tbaa !81
  %23 = getelementptr inbounds nuw i8, ptr %21, i64 8
  store i16 0, ptr %23, align 8, !tbaa !83
  %24 = getelementptr inbounds nuw i8, ptr %21, i64 16
  store i64 0, ptr %24, align 8, !tbaa !85
  %25 = getelementptr inbounds nuw i8, ptr %0, i64 4
  %26 = load i32, ptr %25, align 4, !tbaa !87
  %27 = zext i32 %26 to i64
  %.idx.i.i = mul nuw nsw i64 %27, 24
  %28 = getelementptr inbounds nuw i8, ptr %19, i64 %.idx.i.i
  %29 = getelementptr inbounds nuw i8, ptr %28, i64 10
  %30 = load i16, ptr %29, align 2, !tbaa !89
  %31 = getelementptr inbounds nuw i8, ptr %21, i64 10
  store i16 %30, ptr %31, align 2, !tbaa !89
  %32 = trunc nuw nsw i32 %15 to i16
  store i16 %32, ptr %29, align 2, !tbaa !89
  %33 = add nuw nsw i32 %15, 1
  store i32 %33, ptr %0, align 8, !tbaa !88
  store i32 %15, ptr %25, align 4, !tbaa !87
  %34 = getelementptr inbounds nuw i8, ptr %0, i64 44
  %35 = load i32, ptr %34, align 4, !tbaa !91
  %36 = and i32 %35, 50331648
  %.not41 = icmp eq i32 %36, 0
  br i1 %.not41, label %160, label %37

37:                                               ; preds = %cp_push.exit
  %38 = icmp eq i32 %15, 99
  br i1 %38, label %39, label %cp_push.exit43

39:                                               ; preds = %37
  tail call fastcc void @cp_err(ptr noundef nonnull %4, i32 noundef 2216) #16
  unreachable

cp_push.exit43:                                   ; preds = %37
  %40 = zext nneg i32 %33 to i64
  %41 = getelementptr inbounds nuw [100 x %struct.CType], ptr %19, i64 0, i64 %40
  store i32 -2147418112, ptr %41, align 8, !tbaa !71
  %42 = getelementptr inbounds nuw i8, ptr %41, i64 4
  store i32 %36, ptr %42, align 4, !tbaa !81
  %43 = getelementptr inbounds nuw i8, ptr %41, i64 8
  store i16 0, ptr %43, align 8, !tbaa !83
  %44 = getelementptr inbounds nuw i8, ptr %41, i64 16
  store i64 0, ptr %44, align 8, !tbaa !85
  %.idx.i.i42 = mul nuw nsw i64 %20, 24
  %45 = getelementptr inbounds nuw i8, ptr %19, i64 %.idx.i.i42
  %46 = getelementptr inbounds nuw i8, ptr %45, i64 10
  %47 = load i16, ptr %46, align 2, !tbaa !89
  %48 = getelementptr inbounds nuw i8, ptr %41, i64 10
  store i16 %47, ptr %48, align 2, !tbaa !89
  %49 = trunc nuw nsw i32 %33 to i16
  store i16 %49, ptr %46, align 2, !tbaa !89
  %50 = add nuw nsw i32 %15, 2
  store i32 %50, ptr %0, align 8, !tbaa !88
  store i32 %33, ptr %25, align 4, !tbaa !87
  %51 = and i32 %35, -50331649
  store i32 %51, ptr %34, align 4, !tbaa !91
  br label %160

52:                                               ; preds = %2
  %53 = and i32 %10, -251723776
  %54 = icmp eq i32 %53, -2147418112
  br i1 %54, label %55, label %60

55:                                               ; preds = %52
  %56 = xor i32 %12, -1
  %57 = getelementptr inbounds nuw i8, ptr %0, i64 44
  %58 = load i32, ptr %57, align 4, !tbaa !91
  %59 = and i32 %58, %56
  store i32 %59, ptr %57, align 4, !tbaa !91
  br label %60

60:                                               ; preds = %55, %52
  %61 = and i32 %10, 65535
  tail call fastcc void @cp_push_type(ptr noundef %0, i32 noundef %61)
  %62 = load i32, ptr %0, align 8, !tbaa !88
  %63 = icmp ugt i32 %62, 99
  br i1 %63, label %64, label %cp_push.exit45

64:                                               ; preds = %60
  %65 = load ptr, ptr %3, align 8, !tbaa !112
  tail call fastcc void @cp_err(ptr noundef %65, i32 noundef 2216) #16
  unreachable

cp_push.exit45:                                   ; preds = %60
  %66 = and i32 %10, -65536
  %67 = getelementptr inbounds nuw i8, ptr %0, i64 64
  %68 = zext nneg i32 %62 to i64
  %69 = getelementptr inbounds nuw [100 x %struct.CType], ptr %67, i64 0, i64 %68
  store i32 %66, ptr %69, align 8, !tbaa !71
  %70 = getelementptr inbounds nuw i8, ptr %69, i64 4
  store i32 %12, ptr %70, align 4, !tbaa !81
  %71 = getelementptr inbounds nuw i8, ptr %69, i64 8
  store i16 0, ptr %71, align 8, !tbaa !83
  %72 = getelementptr inbounds nuw i8, ptr %69, i64 16
  store i64 0, ptr %72, align 8, !tbaa !85
  %73 = getelementptr inbounds nuw i8, ptr %0, i64 4
  %74 = load i32, ptr %73, align 4, !tbaa !87
  %75 = zext i32 %74 to i64
  %.idx.i.i44 = mul nuw nsw i64 %75, 24
  %76 = getelementptr inbounds nuw i8, ptr %67, i64 %.idx.i.i44
  %77 = getelementptr inbounds nuw i8, ptr %76, i64 10
  %78 = load i16, ptr %77, align 2, !tbaa !89
  %79 = getelementptr inbounds nuw i8, ptr %69, i64 10
  store i16 %78, ptr %79, align 2, !tbaa !89
  %80 = trunc nuw nsw i32 %62 to i16
  store i16 %80, ptr %77, align 2, !tbaa !89
  %81 = add nuw nsw i32 %62, 1
  store i32 %81, ptr %0, align 8, !tbaa !88
  store i32 %62, ptr %73, align 4, !tbaa !87
  br label %160

82:                                               ; preds = %2
  %83 = and i32 %10, 201326592
  %.not = icmp eq i32 %83, 0
  br i1 %.not, label %90, label %84

84:                                               ; preds = %82
  %85 = getelementptr inbounds nuw i8, ptr %0, i64 44
  %86 = load i32, ptr %85, align 4, !tbaa !91
  %87 = and i32 %86, 50331648
  %88 = or i32 %87, %10
  %89 = and i32 %86, -50331649
  store i32 %89, ptr %85, align 4, !tbaa !91
  br label %90

90:                                               ; preds = %84, %82
  %.0 = phi i32 [ %88, %84 ], [ %10, %82 ]
  %91 = and i32 %.0, 65535
  tail call fastcc void @cp_push_type(ptr noundef %0, i32 noundef %91)
  %92 = load i32, ptr %0, align 8, !tbaa !88
  %93 = icmp ugt i32 %92, 99
  br i1 %93, label %94, label %cp_push.exit47

94:                                               ; preds = %90
  %95 = load ptr, ptr %3, align 8, !tbaa !112
  tail call fastcc void @cp_err(ptr noundef %95, i32 noundef 2216) #16
  unreachable

cp_push.exit47:                                   ; preds = %90
  %96 = and i32 %.0, -65536
  %97 = getelementptr inbounds nuw i8, ptr %0, i64 64
  %98 = zext nneg i32 %92 to i64
  %99 = getelementptr inbounds nuw [100 x %struct.CType], ptr %97, i64 0, i64 %98
  store i32 %96, ptr %99, align 8, !tbaa !71
  %100 = getelementptr inbounds nuw i8, ptr %99, i64 4
  store i32 %12, ptr %100, align 4, !tbaa !81
  %101 = getelementptr inbounds nuw i8, ptr %99, i64 16
  store i64 0, ptr %101, align 8, !tbaa !85
  %102 = getelementptr inbounds nuw i8, ptr %0, i64 4
  %103 = load i32, ptr %102, align 4, !tbaa !87
  %104 = zext i32 %103 to i64
  %.idx.i.i46 = mul nuw nsw i64 %104, 24
  %105 = getelementptr inbounds nuw i8, ptr %97, i64 %.idx.i.i46
  %106 = getelementptr inbounds nuw i8, ptr %105, i64 10
  %107 = load i16, ptr %106, align 2, !tbaa !89
  %108 = getelementptr inbounds nuw i8, ptr %99, i64 10
  store i16 %107, ptr %108, align 2, !tbaa !89
  %109 = trunc nuw nsw i32 %92 to i16
  store i16 %109, ptr %106, align 2, !tbaa !89
  %110 = add nuw nsw i32 %92, 1
  store i32 %110, ptr %0, align 8, !tbaa !88
  store i32 %92, ptr %102, align 4, !tbaa !87
  %.idx = mul nuw nsw i64 %98, 24
  %111 = getelementptr i8, ptr %0, i64 72
  %112 = getelementptr i8, ptr %111, i64 %.idx
  store i16 1, ptr %112, align 8, !tbaa !83
  br label %160

113:                                              ; preds = %2
  %114 = load i32, ptr %0, align 8, !tbaa !88
  %115 = icmp ugt i32 %114, 99
  br i1 %115, label %116, label %cp_push.exit49

116:                                              ; preds = %113
  tail call fastcc void @cp_err(ptr noundef nonnull %4, i32 noundef 2216) #16
  unreachable

cp_push.exit49:                                   ; preds = %113
  %117 = getelementptr inbounds nuw i8, ptr %0, i64 64
  %118 = getelementptr inbounds nuw i8, ptr %9, i64 8
  %119 = load i16, ptr %118, align 8, !tbaa !83
  %120 = zext nneg i32 %114 to i64
  %121 = getelementptr inbounds nuw [100 x %struct.CType], ptr %117, i64 0, i64 %120
  store i32 %10, ptr %121, align 8, !tbaa !71
  %122 = getelementptr inbounds nuw i8, ptr %121, i64 4
  store i32 %12, ptr %122, align 4, !tbaa !81
  %123 = getelementptr inbounds nuw i8, ptr %121, i64 16
  store i64 0, ptr %123, align 8, !tbaa !85
  %124 = getelementptr inbounds nuw i8, ptr %0, i64 4
  %125 = load i32, ptr %124, align 4, !tbaa !87
  %126 = zext i32 %125 to i64
  %.idx.i.i48 = mul nuw nsw i64 %126, 24
  %127 = getelementptr inbounds nuw i8, ptr %117, i64 %.idx.i.i48
  %128 = getelementptr inbounds nuw i8, ptr %127, i64 10
  %129 = load i16, ptr %128, align 2, !tbaa !89
  %130 = getelementptr inbounds nuw i8, ptr %121, i64 10
  store i16 %129, ptr %130, align 2, !tbaa !89
  %131 = trunc nuw nsw i32 %114 to i16
  store i16 %131, ptr %128, align 2, !tbaa !89
  %132 = add nuw nsw i32 %114, 1
  store i32 %132, ptr %0, align 8, !tbaa !88
  store i32 %114, ptr %124, align 4, !tbaa !87
  %narrow = mul nuw nsw i32 %114, 24
  %133 = zext nneg i32 %narrow to i64
  %134 = getelementptr inbounds nuw i8, ptr %117, i64 %133
  %135 = getelementptr inbounds nuw i8, ptr %134, i64 8
  store i16 %119, ptr %135, align 8, !tbaa !83
  br label %160

136:                                              ; preds = %2
  %137 = load i32, ptr %0, align 8, !tbaa !88
  %138 = icmp ugt i32 %137, 99
  br i1 %138, label %139, label %cp_push.exit51

139:                                              ; preds = %136
  tail call fastcc void @cp_err(ptr noundef nonnull %4, i32 noundef 2216) #16
  unreachable

cp_push.exit51:                                   ; preds = %136
  %140 = getelementptr inbounds nuw i8, ptr %0, i64 44
  %141 = load i32, ptr %140, align 4, !tbaa !91
  %142 = and i32 %141, 50331648
  %143 = or i32 %142, %10
  %144 = getelementptr inbounds nuw i8, ptr %0, i64 64
  %145 = zext nneg i32 %137 to i64
  %146 = getelementptr inbounds nuw [100 x %struct.CType], ptr %144, i64 0, i64 %145
  store i32 %143, ptr %146, align 8, !tbaa !71
  %147 = getelementptr inbounds nuw i8, ptr %146, i64 4
  store i32 %12, ptr %147, align 4, !tbaa !81
  %148 = getelementptr inbounds nuw i8, ptr %146, i64 8
  store i16 0, ptr %148, align 8, !tbaa !83
  %149 = getelementptr inbounds nuw i8, ptr %146, i64 16
  store i64 0, ptr %149, align 8, !tbaa !85
  %150 = getelementptr inbounds nuw i8, ptr %0, i64 4
  %151 = load i32, ptr %150, align 4, !tbaa !87
  %152 = zext i32 %151 to i64
  %.idx.i.i50 = mul nuw nsw i64 %152, 24
  %153 = getelementptr inbounds nuw i8, ptr %144, i64 %.idx.i.i50
  %154 = getelementptr inbounds nuw i8, ptr %153, i64 10
  %155 = load i16, ptr %154, align 2, !tbaa !89
  %156 = getelementptr inbounds nuw i8, ptr %146, i64 10
  store i16 %155, ptr %156, align 2, !tbaa !89
  %157 = trunc nuw nsw i32 %137 to i16
  store i16 %157, ptr %154, align 2, !tbaa !89
  %158 = add nuw nsw i32 %137, 1
  store i32 %158, ptr %0, align 8, !tbaa !88
  store i32 %137, ptr %150, align 4, !tbaa !87
  %159 = and i32 %141, -50331649
  store i32 %159, ptr %140, align 4, !tbaa !91
  br label %160

160:                                              ; preds = %cp_push.exit, %cp_push.exit43, %cp_push.exit51, %cp_push.exit49, %cp_push.exit47, %cp_push.exit45
  ret void
}